target datalayout = "e-m:e-p270:32:32-p271:32:32-p272:64:64-i64:64-i128:128-f80:128-n8:16:32:64-S128"
target triple = "x86_64-pc-linux-gnu"

%struct.avifROData = type { ptr, i64 }
%struct.avifROStream = type { ptr, i64, i64, ptr, ptr }

@__const.avifGetExifTiffHeaderOffset.tiffHeaderBE = private unnamed_addr constant [4 x i8] c"MM\00*", align 1
@__const.avifGetExifTiffHeaderOffset.tiffHeaderLE = private unnamed_addr constant [4 x i8] c"II*\00", align 1

; Function Attrs: nounwind uwtable
define hidden i32 @avifGetExifTiffHeaderOffset(ptr noundef %0, i64 noundef %1, ptr noundef %2) #0 {
  %4 = alloca i32, align 4
  %5 = alloca ptr, align 8
  %6 = alloca i64, align 8
  %7 = alloca ptr, align 8
  %8 = alloca [4 x i8], align 1
  %9 = alloca [4 x i8], align 1
  store ptr %0, ptr %5, align 8
  store i64 %1, ptr %6, align 8
  store ptr %2, ptr %7, align 8
  call void @llvm.memcpy.p0.p0.i64(ptr align 1 %8, ptr align 1 @__const.avifGetExifTiffHeaderOffset.tiffHeaderBE, i64 4, i1 false)
  call void @llvm.memcpy.p0.p0.i64(ptr align 1 %9, ptr align 1 @__const.avifGetExifTiffHeaderOffset.tiffHeaderLE, i64 4, i1 false)
  %10 = load i64, ptr %6, align 8
  %11 = icmp ult i64 %10, 4294967295
  br i1 %11, label %12, label %14

12:                                               ; preds = %3
  %13 = load i64, ptr %6, align 8
  br label %15

14:                                               ; preds = %3
  br label %15

15:                                               ; preds = %14, %12
  %16 = phi i64 [ %13, %12 ], [ 4294967295, %14 ]
  store i64 %16, ptr %6, align 8
  %17 = load ptr, ptr %7, align 8
  store i64 0, ptr %17, align 8
  br label %18

18:                                               ; preds = %42, %15
  %19 = load ptr, ptr %7, align 8
  %20 = load i64, ptr %19, align 8
  %21 = add i64 %20, 4
  %22 = load i64, ptr %6, align 8
  %23 = icmp ult i64 %21, %22
  br i1 %23, label %24, label %46

24:                                               ; preds = %18
  %25 = load ptr, ptr %5, align 8
  %26 = load ptr, ptr %7, align 8
  %27 = load i64, ptr %26, align 8
  %28 = getelementptr inbounds i8, ptr %25, i64 %27
  %29 = getelementptr inbounds [4 x i8], ptr %8, i64 0, i64 0
  %30 = call i32 @memcmp(ptr noundef %28, ptr noundef %29, i64 noundef 4) #4
  %31 = icmp ne i32 %30, 0
  br i1 %31, label %32, label %40

32:                                               ; preds = %24
  %33 = load ptr, ptr %5, align 8
  %34 = load ptr, ptr %7, align 8
  %35 = load i64, ptr %34, align 8
  %36 = getelementptr inbounds i8, ptr %33, i64 %35
  %37 = getelementptr inbounds [4 x i8], ptr %9, i64 0, i64 0
  %38 = call i32 @memcmp(ptr noundef %36, ptr noundef %37, i64 noundef 4) #4
  %39 = icmp ne i32 %38, 0
  br i1 %39, label %41, label %40

40:                                               ; preds = %32, %24
  store i32 0, ptr %4, align 4
  br label %47

41:                                               ; preds = %32
  br label %42

42:                                               ; preds = %41
  %43 = load ptr, ptr %7, align 8
  %44 = load i64, ptr %43, align 8
  %45 = add i64 %44, 1
  store i64 %45, ptr %43, align 8
  br label %18, !llvm.loop !4

46:                                               ; preds = %18
  store i32 17, ptr %4, align 4
  br label %47

47:                                               ; preds = %46, %40
  %48 = load i32, ptr %4, align 4
  ret i32 %48
}

; Function Attrs: nounwind uwtable
define hidden i32 @avifGetExifOrientationOffset(ptr noundef %0, i64 noundef %1, ptr noundef %2) #0 {
  %4 = alloca i32, align 4
  %5 = alloca ptr, align 8
  %6 = alloca i64, align 8
  %7 = alloca ptr, align 8
  %8 = alloca i32, align 4
  %9 = alloca %struct.avifROData, align 8
  %10 = alloca i32, align 4
  %11 = alloca %struct.avifROStream, align 8
  %12 = alloca i32, align 4
  %13 = alloca i16, align 2
  %14 = alloca i16, align 2
  %15 = alloca i16, align 2
  %16 = alloca i16, align 2
  %17 = alloca i32, align 4
  %18 = alloca i16, align 2
  %19 = alloca i16, align 2
  store ptr %0, ptr %5, align 8
  store i64 %1, ptr %6, align 8
  store ptr %2, ptr %7, align 8
  %20 = load ptr, ptr %5, align 8
  %21 = load i64, ptr %6, align 8
  %22 = load ptr, ptr %7, align 8
  %23 = call i32 @avifGetExifTiffHeaderOffset(ptr noundef %20, i64 noundef %21, ptr noundef %22)
  store i32 %23, ptr %8, align 4
  %24 = load i32, ptr %8, align 4
  %25 = icmp ne i32 %24, 0
  br i1 %25, label %26, label %28

26:                                               ; preds = %3
  %27 = load i32, ptr %8, align 4
  store i32 %27, ptr %4, align 4
  br label %124

28:                                               ; preds = %3
  %29 = getelementptr inbounds nuw %struct.avifROData, ptr %9, i32 0, i32 0
  %30 = load ptr, ptr %5, align 8
  %31 = load ptr, ptr %7, align 8
  %32 = load i64, ptr %31, align 8
  %33 = getelementptr inbounds i8, ptr %30, i64 %32
  store ptr %33, ptr %29, align 8
  %34 = getelementptr inbounds nuw %struct.avifROData, ptr %9, i32 0, i32 1
  %35 = load i64, ptr %6, align 8
  %36 = load ptr, ptr %7, align 8
  %37 = load i64, ptr %36, align 8
  %38 = sub i64 %35, %37
  store i64 %38, ptr %34, align 8
  %39 = getelementptr inbounds nuw %struct.avifROData, ptr %9, i32 0, i32 0
  %40 = load ptr, ptr %39, align 8
  %41 = getelementptr inbounds i8, ptr %40, i64 0
  %42 = load i8, ptr %41, align 1
  %43 = zext i8 %42 to i32
  %44 = icmp eq i32 %43, 73
  %45 = zext i1 %44 to i32
  store i32 %45, ptr %10, align 4
  call void @avifROStreamStart(ptr noundef %11, ptr noundef %9, ptr noundef null, ptr noundef null)
  %46 = call i32 @avifROStreamSkip(ptr noundef %11, i64 noundef 4)
  %47 = icmp ne i32 %46, 0
  br i1 %47, label %48, label %52

48:                                               ; preds = %28
  %49 = load i32, ptr %10, align 4
  %50 = call i32 @avifROStreamReadU32Endianness(ptr noundef %11, ptr noundef %12, i32 noundef %49)
  %51 = icmp ne i32 %50, 0
  br i1 %51, label %53, label %52

52:                                               ; preds = %48, %28
  store i32 17, ptr %4, align 4
  br label %124

53:                                               ; preds = %48
  %54 = load i32, ptr %12, align 4
  %55 = zext i32 %54 to i64
  call void @avifROStreamSetOffset(ptr noundef %11, i64 noundef %55)
  %56 = load i32, ptr %10, align 4
  %57 = call i32 @avifROStreamReadU16Endianness(ptr noundef %11, ptr noundef %13, i32 noundef %56)
  %58 = icmp ne i32 %57, 0
  br i1 %58, label %60, label %59

59:                                               ; preds = %53
  store i32 17, ptr %4, align 4
  br label %124

60:                                               ; preds = %53
  store i16 0, ptr %14, align 2
  br label %61

61:                                               ; preds = %118, %60
  %62 = load i16, ptr %14, align 2
  %63 = zext i16 %62 to i32
  %64 = load i16, ptr %13, align 2
  %65 = zext i16 %64 to i32
  %66 = icmp slt i32 %63, %65
  br i1 %66, label %67, label %121

67:                                               ; preds = %61
  %68 = load i32, ptr %10, align 4
  %69 = call i32 @avifROStreamReadU16Endianness(ptr noundef %11, ptr noundef %15, i32 noundef %68)
  %70 = icmp ne i32 %69, 0
  br i1 %70, label %71, label %86

71:                                               ; preds = %67
  %72 = load i32, ptr %10, align 4
  %73 = call i32 @avifROStreamReadU16Endianness(ptr noundef %11, ptr noundef %16, i32 noundef %72)
  %74 = icmp ne i32 %73, 0
  br i1 %74, label %75, label %86

75:                                               ; preds = %71
  %76 = load i32, ptr %10, align 4
  %77 = call i32 @avifROStreamReadU32Endianness(ptr noundef %11, ptr noundef %17, i32 noundef %76)
  %78 = icmp ne i32 %77, 0
  br i1 %78, label %79, label %86

79:                                               ; preds = %75
  %80 = load i32, ptr %10, align 4
  %81 = call i32 @avifROStreamReadU16Endianness(ptr noundef %11, ptr noundef %18, i32 noundef %80)
  %82 = icmp ne i32 %81, 0
  br i1 %82, label %83, label %86

83:                                               ; preds = %79
  %84 = call i32 @avifROStreamSkip(ptr noundef %11, i64 noundef 2)
  %85 = icmp ne i32 %84, 0
  br i1 %85, label %87, label %86

86:                                               ; preds = %83, %79, %75, %71, %67
  store i32 17, ptr %4, align 4
  br label %124

87:                                               ; preds = %83
  store i16 3, ptr %19, align 2
  %88 = load i16, ptr %15, align 2
  %89 = zext i16 %88 to i32
  %90 = icmp eq i32 %89, 274
  br i1 %90, label %91, label %117

91:                                               ; preds = %87
  %92 = load i16, ptr %16, align 2
  %93 = zext i16 %92 to i32
  %94 = icmp eq i32 %93, 3
  br i1 %94, label %95, label %117

95:                                               ; preds = %91
  %96 = load i32, ptr %17, align 4
  %97 = icmp eq i32 %96, 1
  br i1 %97, label %98, label %117

98:                                               ; preds = %95
  %99 = load i16, ptr %18, align 2
  %100 = zext i16 %99 to i32
  %101 = icmp sge i32 %100, 1
  br i1 %101, label %102, label %116

102:                                              ; preds = %98
  %103 = load i16, ptr %18, align 2
  %104 = zext i16 %103 to i32
  %105 = icmp sle i32 %104, 8
  br i1 %105, label %106, label %116

106:                                              ; preds = %102
  %107 = call i64 @avifROStreamOffset(ptr noundef %11)
  %108 = load i32, ptr %10, align 4
  %109 = icmp ne i32 %108, 0
  %110 = select i1 %109, i32 4, i32 3
  %111 = sext i32 %110 to i64
  %112 = sub i64 %107, %111
  %113 = load ptr, ptr %7, align 8
  %114 = load i64, ptr %113, align 8
  %115 = add i64 %114, %112
  store i64 %115, ptr %113, align 8
  store i32 0, ptr %4, align 4
  br label %124

116:                                              ; preds = %102, %98
  br label %117

117:                                              ; preds = %116, %95, %91, %87
  br label %118

118:                                              ; preds = %117
  %119 = load i16, ptr %14, align 2
  %120 = add i16 %119, 1
  store i16 %120, ptr %14, align 2
  br label %61, !llvm.loop !6

121:                                              ; preds = %61
  %122 = load i64, ptr %6, align 8
  %123 = load ptr, ptr %7, align 8
  store i64 %122, ptr %123, align 8
  store i32 0, ptr %4, align 4
  br label %124

124:                                              ; preds = %121, %106, %86, %59, %52, %26
  %125 = load i32, ptr %4, align 4
  ret i32 %125
}