; Function Attrs: nounwind uwtable
define hidden range(i32 0, 18) i32 @avifGetExifOrientationOffset(ptr noundef %0, i64 noundef %1, ptr nocapture noundef %2) local_unnamed_addr #1 {
  %4 = alloca %struct.avifROData, align 8
  %5 = alloca %struct.avifROStream, align 8
  %6 = alloca i32, align 4
  %7 = alloca i16, align 2
  %8 = alloca i16, align 2
  %9 = alloca i16, align 2
  %10 = alloca i32, align 4
  %11 = alloca i16, align 2
  store i64 0, ptr %2, align 8
  %12 = icmp ugt i64 %1, 4
  br i1 %12, label %.lr.ph.preheader.i, label %avifGetExifTiffHeaderOffset.exit

.lr.ph.preheader.i:                               ; preds = %3
  %13 = tail call i64 @llvm.umin.i64(i64 %1, i64 4294967295)
  %14 = add nsw i64 %13, -5
  br label %.lr.ph.i

15:                                               ; preds = %19
  %16 = add nuw nsw i64 %17, 1
  store i64 %16, ptr %2, align 8
  %exitcond.not.i = icmp eq i64 %17, %14
  br i1 %exitcond.not.i, label %avifGetExifTiffHeaderOffset.exit, label %.lr.ph.i, !llvm.loop !4

.lr.ph.i:                                         ; preds = %15, %.lr.ph.preheader.i
  %17 = phi i64 [ %16, %15 ], [ 0, %.lr.ph.preheader.i ]
  %18 = getelementptr inbounds i8, ptr %0, i64 %17
  %bcmp.i = tail call i32 @bcmp(ptr noundef nonnull readonly dereferenceable(4) %18, ptr noundef nonnull dereferenceable(4) @__const.avifGetExifTiffHeaderOffset.tiffHeaderBE, i64 4)
  %.not.i = icmp eq i32 %bcmp.i, 0
  br i1 %.not.i, label %20, label %19

19:                                               ; preds = %.lr.ph.i
  %bcmp10.i = tail call i32 @bcmp(ptr noundef nonnull readonly dereferenceable(4) %18, ptr noundef nonnull dereferenceable(4) @__const.avifGetExifTiffHeaderOffset.tiffHeaderLE, i64 4)
  %.not11.i = icmp eq i32 %bcmp10.i, 0
  br i1 %.not11.i, label %20, label %15

20:                                               ; preds = %.lr.ph.i, %19
  store ptr %18, ptr %4, align 8
  %21 = getelementptr inbounds nuw i8, ptr %4, i64 8
  %22 = sub i64 %1, %17
  store i64 %22, ptr %21, align 8
  %23 = load i8, ptr %18, align 1
  %24 = icmp eq i8 %23, 73
  %25 = zext i1 %24 to i32
  call void @avifROStreamStart(ptr noundef nonnull %5, ptr noundef nonnull %4, ptr noundef null, ptr noundef null) #6
  %26 = call i32 @avifROStreamSkip(ptr noundef nonnull %5, i64 noundef 4) #6
  %.not30 = icmp eq i32 %26, 0
  br i1 %.not30, label %avifGetExifTiffHeaderOffset.exit, label %27

27:                                               ; preds = %20
  %28 = call i32 @avifROStreamReadU32Endianness(ptr noundef nonnull %5, ptr noundef nonnull %6, i32 noundef %25) #6
  %.not31 = icmp eq i32 %28, 0
  br i1 %.not31, label %avifGetExifTiffHeaderOffset.exit, label %29

29:                                               ; preds = %27
  %30 = load i32, ptr %6, align 4
  %31 = zext i32 %30 to i64
  call void @avifROStreamSetOffset(ptr noundef nonnull %5, i64 noundef %31) #6
  %32 = call i32 @avifROStreamReadU16Endianness(ptr noundef nonnull %5, ptr noundef nonnull %7, i32 noundef %25) #6
  %.not32 = icmp eq i32 %32, 0
  br i1 %.not32, label %avifGetExifTiffHeaderOffset.exit, label %.preheader

.preheader:                                       ; preds = %29
  %33 = load i16, ptr %7, align 2
  %.not = icmp eq i16 %33, 0
  br i1 %.not, label %avifGetExifTiffHeaderOffset.exit.sink.split, label %.lr.ph

.lr.ph:                                           ; preds = %.preheader, %58
  %.02841 = phi i16 [ %59, %58 ], [ 0, %.preheader ]
  %34 = call i32 @avifROStreamReadU16Endianness(ptr noundef nonnull %5, ptr noundef nonnull %8, i32 noundef %25) #6
  %.not33 = icmp eq i32 %34, 0
  br i1 %.not33, label %avifGetExifTiffHeaderOffset.exit, label %35

35:                                               ; preds = %.lr.ph
  %36 = call i32 @avifROStreamReadU16Endianness(ptr noundef nonnull %5, ptr noundef nonnull %9, i32 noundef %25) #6
  %.not34 = icmp eq i32 %36, 0
  br i1 %.not34, label %avifGetExifTiffHeaderOffset.exit, label %37

37:                                               ; preds = %35
  %38 = call i32 @avifROStreamReadU32Endianness(ptr noundef nonnull %5, ptr noundef nonnull %10, i32 noundef %25) #6
  %.not35 = icmp eq i32 %38, 0
  br i1 %.not35, label %avifGetExifTiffHeaderOffset.exit, label %39

39:                                               ; preds = %37
  %40 = call i32 @avifROStreamReadU16Endianness(ptr noundef nonnull %5, ptr noundef nonnull %11, i32 noundef %25) #6
  %.not36 = icmp eq i32 %40, 0
  br i1 %.not36, label %avifGetExifTiffHeaderOffset.exit, label %41

41:                                               ; preds = %39
  %42 = call i32 @avifROStreamSkip(ptr noundef nonnull %5, i64 noundef 2) #6
  %.not37 = icmp eq i32 %42, 0
  br i1 %.not37, label %avifGetExifTiffHeaderOffset.exit, label %43

43:                                               ; preds = %41
  %44 = load i16, ptr %8, align 2
  %45 = icmp eq i16 %44, 274
  %46 = load i16, ptr %9, align 2
  %47 = icmp eq i16 %46, 3
  %or.cond = select i1 %45, i1 %47, i1 false
  %48 = load i32, ptr %10, align 4
  %49 = icmp eq i32 %48, 1
  %or.cond4 = select i1 %or.cond, i1 %49, i1 false
  br i1 %or.cond4, label %50, label %58

50:                                               ; preds = %43
  %51 = load i16, ptr %11, align 2
  %52 = add i16 %51, -1
  %or.cond7 = icmp ult i16 %52, 8
  br i1 %or.cond7, label %53, label %58

53:                                               ; preds = %50
  %54 = call i64 @avifROStreamOffset(ptr noundef nonnull %5) #6
  %.neg = select i1 %24, i64 -4, i64 -3
  %55 = add i64 %54, %.neg
  %56 = load i64, ptr %2, align 8
  %57 = add i64 %55, %56
  br label %avifGetExifTiffHeaderOffset.exit.sink.split

58:                                               ; preds = %43, %50
  %59 = add nuw i16 %.02841, 1
  %60 = load i16, ptr %7, align 2
  %61 = icmp ult i16 %59, %60
  br i1 %61, label %.lr.ph, label %avifGetExifTiffHeaderOffset.exit.sink.split, !llvm.loop !6

avifGetExifTiffHeaderOffset.exit.sink.split:      ; preds = %58, %.preheader, %53
  %.sink = phi i64 [ %57, %53 ], [ %1, %.preheader ], [ %1, %58 ]
  store i64 %.sink, ptr %2, align 8
  br label %avifGetExifTiffHeaderOffset.exit

avifGetExifTiffHeaderOffset.exit:                 ; preds = %15, %.lr.ph, %35, %37, %39, %41, %avifGetExifTiffHeaderOffset.exit.sink.split, %3, %29, %20, %27
  %.0 = phi i32 [ 17, %27 ], [ 17, %20 ], [ 17, %29 ], [ 17, %3 ], [ 0, %avifGetExifTiffHeaderOffset.exit.sink.split ], [ 17, %41 ], [ 17, %39 ], [ 17, %37 ], [ 17, %35 ], [ 17, %.lr.ph ], [ 17, %15 ]
  ret i32 %.0
}